; Function Attrs: mustprogress nofree norecurse nosync nounwind willreturn memory(readwrite, inaccessiblemem: none) uwtable
define hidden void @_PyErr_Fetch(ptr noundef captures(none) %0, ptr noundef writeonly captures(none) initializes((0, 8)) %1, ptr noundef writeonly captures(none) initializes((0, 8)) %2, ptr noundef writeonly captures(none) initializes((0, 8)) %3) local_unnamed_addr #6 {
  %5 = getelementptr inbounds nuw i8, ptr %0, i64 112
  %6 = load ptr, ptr %5, align 8, !tbaa !4
  store ptr null, ptr %5, align 8, !tbaa !4
  store ptr %6, ptr %2, align 8, !tbaa !24
  %7 = icmp eq ptr %6, null
  br i1 %7, label %8, label %9

8:                                                ; preds = %4
  store ptr null, ptr %1, align 8, !tbaa !24
  br label %_Py_XNewRef.exit

9:                                                ; preds = %4
  %10 = getelementptr i8, ptr %6, i64 8
  %.val = load ptr, ptr %10, align 8, !tbaa !21
  %11 = load i32, ptr %.val, align 8, !tbaa !20
  %12 = icmp slt i32 %11, 0
  br i1 %12, label %_Py_NewRef.exit, label %13

13:                                               ; preds = %9
  %14 = add nuw i32 %11, 1
  store i32 %14, ptr %.val, align 8, !tbaa !20
  br label %_Py_NewRef.exit

_Py_NewRef.exit:                                  ; preds = %9, %13
  store ptr %.val, ptr %1, align 8, !tbaa !24
  %15 = getelementptr inbounds nuw i8, ptr %6, i64 40
  %16 = load ptr, ptr %15, align 8, !tbaa !26
  %.not.i.i = icmp eq ptr %16, null
  br i1 %.not.i.i, label %_Py_XNewRef.exit, label %17

17:                                               ; preds = %_Py_NewRef.exit
  %18 = load i32, ptr %16, align 8, !tbaa !20
  %19 = icmp slt i32 %18, 0
  br i1 %19, label %_Py_XNewRef.exit, label %20

20:                                               ; preds = %17
  %21 = add nuw i32 %18, 1
  store i32 %21, ptr %16, align 8, !tbaa !20
  br label %_Py_XNewRef.exit

_Py_XNewRef.exit:                                 ; preds = %20, %17, %_Py_NewRef.exit, %8
  %storemerge = phi ptr [ null, %8 ], [ null, %_Py_NewRef.exit ], [ %16, %17 ], [ %16, %20 ]
  store ptr %storemerge, ptr %3, align 8, !tbaa !24
  ret void
}